target datalayout = "e-m:e-p270:32:32-p271:32:32-p272:64:64-i64:64-i128:128-f80:128-n8:16:32:64-S128"
target triple = "x86_64-pc-linux-gnu"

%"class.boost::urls::params_base::iterator" = type <{ %"struct.boost::urls::detail::params_iter_impl", i8, [7 x i8] }>
%"struct.boost::urls::detail::params_iter_impl" = type { [8 x i8], %"class.boost::urls::detail::query_ref", i64, i64, i64, i64, i64, i64 }
%"class.boost::urls::detail::query_ref" = type <{ ptr, ptr, i64, i64, i64, i8, [7 x i8] }>
%"class.boost::urls::params_base" = type { %"class.boost::urls::detail::query_ref", %"struct.boost::urls::encoding_opts", [5 x i8] }
%"struct.boost::urls::encoding_opts" = type { i8, i8, i8 }
%"class.boost::urls::params_base.base" = type { %"class.boost::urls::detail::query_ref", %"struct.boost::urls::encoding_opts" }
%"class.boost::core::basic_string_view" = type { ptr, i64 }
%"struct.boost::urls::detail::param_iter" = type { %"struct.boost::urls::detail::any_params_iter.base", i8, i8, [5 x i8] }
%"struct.boost::urls::detail::any_params_iter.base" = type <{ ptr, %"class.boost::core::basic_string_view", %"class.boost::core::basic_string_view", i8 }>
%"class.boost::urls::params_ref" = type { %"class.boost::urls::params_base.base", ptr }

; Function Attrs: mustprogress nounwind uwtable
define linkonce_odr hidden noundef nonnull align 8 dereferenceable(105) ptr @_ZN5boost4urls11params_base8iteratormmEv(ptr noundef nonnull align 8 dereferenceable(105) %0) #2 comdat align 2 {
  %2 = alloca ptr, align 8
  store ptr %0, ptr %2, align 8, !tbaa !3
  %3 = load ptr, ptr %2, align 8
  %4 = getelementptr inbounds nuw %"class.boost::urls::params_base::iterator", ptr %3, i32 0, i32 0
  call void @_ZN5boost4urls6detail16params_iter_impl9decrementEv(ptr noundef nonnull align 8 dereferenceable(104) %4) #10
  ret ptr %3
}

; Function Attrs: mustprogress nounwind uwtable
define linkonce_odr hidden noundef nonnull align 8 dereferenceable(105) ptr @_ZN5boost4urls11params_base8iteratorppEv(ptr noundef nonnull align 8 dereferenceable(105) %0) #2 comdat align 2 {
  %2 = alloca ptr, align 8
  store ptr %0, ptr %2, align 8, !tbaa !3
  %3 = load ptr, ptr %2, align 8
  %4 = getelementptr inbounds nuw %"class.boost::urls::params_base::iterator", ptr %3, i32 0, i32 0
  call void @_ZN5boost4urls6detail16params_iter_impl9incrementEv(ptr noundef nonnull align 8 dereferenceable(104) %4) #10
  ret ptr %3
}

; Function Attrs: inlinehint mustprogress nounwind uwtable
define linkonce_odr void @_ZSt9__advanceIN5boost4urls11params_base8iteratorElEvRT_T0_St26bidirectional_iterator_tag(ptr noundef nonnull align 8 dereferenceable(105) %0, i64 noundef %1) #7 comdat {
  %3 = alloca ptr, align 8
  %4 = alloca i64, align 8
  store ptr %0, ptr %3, align 8, !tbaa !3
  store i64 %1, ptr %4, align 8, !tbaa !27
  %5 = load i64, ptr %4, align 8, !tbaa !27
  %6 = icmp sgt i64 %5, 0
  br i1 %6, label %7, label %16

7:                                                ; preds = %2
  br label %8

8:                                                ; preds = %12, %7
  %9 = load i64, ptr %4, align 8, !tbaa !27
  %10 = add nsw i64 %9, -1
  store i64 %10, ptr %4, align 8, !tbaa !27
  %11 = icmp ne i64 %9, 0
  br i1 %11, label %12, label %15

12:                                               ; preds = %8
  %13 = load ptr, ptr %3, align 8, !tbaa !3
  %14 = call noundef nonnull align 8 dereferenceable(105) ptr @_ZN5boost4urls11params_base8iteratorppEv(ptr noundef nonnull align 8 dereferenceable(105) %13) #10
  br label %8, !llvm.loop !54

15:                                               ; preds = %8
  br label %25

16:                                               ; preds = %2
  br label %17

17:                                               ; preds = %21, %16
  %18 = load i64, ptr %4, align 8, !tbaa !27
  %19 = add nsw i64 %18, 1
  store i64 %19, ptr %4, align 8, !tbaa !27
  %20 = icmp ne i64 %18, 0
  br i1 %20, label %21, label %24

21:                                               ; preds = %17
  %22 = load ptr, ptr %3, align 8, !tbaa !3
  %23 = call noundef nonnull align 8 dereferenceable(105) ptr @_ZN5boost4urls11params_base8iteratormmEv(ptr noundef nonnull align 8 dereferenceable(105) %22) #10
  br label %17, !llvm.loop !55

24:                                               ; preds = %17
  br label %25

25:                                               ; preds = %24, %15
  ret void
}

; Function Attrs: inlinehint mustprogress nounwind uwtable
define linkonce_odr void @_ZSt19__iterator_categoryIN5boost4urls11params_base8iteratorEENSt15iterator_traitsIT_E17iterator_categoryERKS5_(ptr noundef nonnull align 8 dereferenceable(105) %0) #7 comdat {
  %2 = alloca ptr, align 8
  store ptr %0, ptr %2, align 8, !tbaa !3
  ret void
}

; Function Attrs: inlinehint mustprogress uwtable
define linkonce_odr void @_ZSt7advanceIN5boost4urls11params_base8iteratorElEvRT_T0_(ptr noundef nonnull align 8 dereferenceable(105) %0, i64 noundef %1) #8 comdat {
  %3 = alloca ptr, align 8
  %4 = alloca i64, align 8
  %5 = alloca i64, align 8
  store ptr %0, ptr %3, align 8, !tbaa !3
  store i64 %1, ptr %4, align 8, !tbaa !27
  call void @llvm.lifetime.start.p0(i64 8, ptr %5) #10
  %6 = load i64, ptr %4, align 8, !tbaa !27
  store i64 %6, ptr %5, align 8, !tbaa !27
  %7 = load ptr, ptr %3, align 8, !tbaa !3
  %8 = load i64, ptr %5, align 8, !tbaa !27
  %9 = load ptr, ptr %3, align 8, !tbaa !3
  call void @_ZSt19__iterator_categoryIN5boost4urls11params_base8iteratorEENSt15iterator_traitsIT_E17iterator_categoryERKS5_(ptr noundef nonnull align 8 dereferenceable(105) %9)
  call void @_ZSt9__advanceIN5boost4urls11params_base8iteratorElEvRT_T0_St26bidirectional_iterator_tag(ptr noundef nonnull align 8 dereferenceable(105) %7, i64 noundef %8)
  call void @llvm.lifetime.end.p0(i64 8, ptr %5) #10
  ret void
}

; Function Attrs: mustprogress nounwind uwtable
define linkonce_odr hidden void @_ZN5boost4urls11params_base8iteratorC2ERKNS0_6detail16params_iter_implENS0_13encoding_optsE(ptr noundef nonnull align 8 dereferenceable(105) %0, ptr noundef nonnull align 8 dereferenceable(104) %1, i24 %2) unnamed_addr #2 comdat align 2 {
  %4 = alloca %"struct.boost::urls::encoding_opts", align 1
  %5 = alloca ptr, align 8
  %6 = alloca ptr, align 8
  store i24 %2, ptr %4, align 1
  store ptr %0, ptr %5, align 8, !tbaa !3
  store ptr %1, ptr %6, align 8, !tbaa !3
  %7 = load ptr, ptr %5, align 8
  %8 = getelementptr inbounds nuw %"class.boost::urls::params_base::iterator", ptr %7, i32 0, i32 0
  %9 = load ptr, ptr %6, align 8, !tbaa !3
  call void @llvm.memcpy.p0.p0.i64(ptr align 8 %8, ptr align 8 %9, i64 104, i1 false)
  %10 = getelementptr inbounds nuw %"class.boost::urls::params_base::iterator", ptr %7, i32 0, i32 1
  %11 = getelementptr inbounds nuw %"struct.boost::urls::encoding_opts", ptr %4, i32 0, i32 0
  %12 = load i8, ptr %11, align 1, !tbaa !20, !range !21, !noundef !22
  %13 = trunc i8 %12 to i1
  %14 = zext i1 %13 to i8
  store i8 %14, ptr %10, align 8, !tbaa !23
  ret void
}

; Function Attrs: inlinehint mustprogress uwtable
define linkonce_odr void @_ZSt4nextIN5boost4urls11params_base8iteratorEET_S4_NSt15iterator_traitsIS4_E15difference_typeE(ptr dead_on_unwind noalias writable sret(%"class.boost::urls::params_base::iterator") align 8 %0, ptr noundef byval(%"class.boost::urls::params_base::iterator") align 8 %1, i64 noundef %2) #8 comdat {
  %4 = alloca i64, align 8
  store i64 %2, ptr %4, align 8, !tbaa !27
  %5 = load i64, ptr %4, align 8, !tbaa !27
  call void @_ZSt7advanceIN5boost4urls11params_base8iteratorElEvRT_T0_(ptr noundef nonnull align 8 dereferenceable(105) %1, i64 noundef %5)
  call void @llvm.memcpy.p0.p0.i64(ptr align 8 %0, ptr align 8 %1, i64 112, i1 false)
  ret void
}

; Function Attrs: mustprogress uwtable
define void @_ZN5boost4urls10params_ref7replaceENS0_11params_base8iteratorERKNS0_10param_viewE(ptr dead_on_unwind noalias writable sret(%"class.boost::urls::params_base::iterator") align 8 %0, ptr noundef nonnull align 8 dereferenceable(64) %1, ptr noundef byval(%"class.boost::urls::params_base::iterator") align 8 %2, ptr noundef nonnull align 8 dereferenceable(33) %3) #3 align 2 personality ptr @__gxx_personality_v0 {
  %5 = alloca ptr, align 8
  %6 = alloca ptr, align 8
  %7 = alloca %"struct.boost::urls::detail::params_iter_impl", align 8
  %8 = alloca %"class.boost::urls::params_base::iterator", align 8
  %9 = alloca %"class.boost::urls::params_base::iterator", align 8
  %10 = alloca %"struct.boost::urls::detail::param_iter", align 8
  %11 = alloca ptr, align 8
  %12 = alloca i32, align 4
  %13 = alloca %"struct.boost::urls::encoding_opts", align 1
  %14 = alloca i24, align 4
  store ptr %1, ptr %5, align 8, !tbaa !3
  store ptr %3, ptr %6, align 8, !tbaa !3
  %15 = load ptr, ptr %5, align 8
  call void @llvm.lifetime.start.p0(i64 104, ptr %7) #10
  %16 = getelementptr inbounds nuw %"class.boost::urls::params_ref", ptr %15, i32 0, i32 1
  %17 = load ptr, ptr %16, align 8, !tbaa !16
  %18 = getelementptr inbounds nuw %"class.boost::urls::params_base::iterator", ptr %2, i32 0, i32 0
  call void @llvm.lifetime.start.p0(i64 112, ptr %8) #10
  call void @llvm.memcpy.p0.p0.i64(ptr align 8 %9, ptr align 8 %2, i64 112, i1 false)
  call void @_ZSt4nextIN5boost4urls11params_base8iteratorEET_S4_NSt15iterator_traitsIS4_E15difference_typeE(ptr dead_on_unwind writable sret(%"class.boost::urls::params_base::iterator") align 8 %8, ptr noundef byval(%"class.boost::urls::params_base::iterator") align 8 %9, i64 noundef 1)
  %19 = getelementptr inbounds nuw %"class.boost::urls::params_base::iterator", ptr %8, i32 0, i32 0
  call void @llvm.lifetime.start.p0(i64 48, ptr %10) #10
  %20 = load ptr, ptr %6, align 8, !tbaa !3
  call void @_ZN5boost4urls6detail10param_iterC1ERKNS0_10param_viewE(ptr noundef nonnull align 8 dereferenceable(43) %10, ptr noundef nonnull align 8 dereferenceable(33) %20) #10
  invoke void @_ZN5boost4urls8url_base11edit_paramsERKNS0_6detail16params_iter_implES5_ONS2_15any_params_iterE(ptr dead_on_unwind writable sret(%"struct.boost::urls::detail::params_iter_impl") align 8 %7, ptr noundef nonnull align 8 dereferenceable(216) %17, ptr noundef nonnull align 8 dereferenceable(104) %18, ptr noundef nonnull align 8 dereferenceable(104) %19, ptr noundef nonnull align 8 dereferenceable(41) %10)
          to label %21 unwind label %24

21:                                               ; preds = %4
  %22 = getelementptr inbounds nuw %"class.boost::urls::params_base", ptr %15, i32 0, i32 1
  call void @llvm.memcpy.p0.p0.i64(ptr align 1 %13, ptr align 8 %22, i64 3, i1 false), !tbaa.struct !12
  call void @llvm.memcpy.p0.p0.i64(ptr align 4 %14, ptr align 1 %13, i64 3, i1 false)
  %23 = load i24, ptr %14, align 4
  call void @_ZN5boost4urls11params_base8iteratorC2ERKNS0_6detail16params_iter_implENS0_13encoding_optsE(ptr noundef nonnull align 8 dereferenceable(105) %0, ptr noundef nonnull align 8 dereferenceable(104) %7, i24 %23) #10
  call void @_ZN5boost4urls6detail15any_params_iterD2Ev(ptr noundef nonnull align 8 dereferenceable(43) %10) #10
  call void @llvm.lifetime.end.p0(i64 48, ptr %10) #10
  call void @llvm.lifetime.end.p0(i64 112, ptr %8) #10
  call void @llvm.lifetime.end.p0(i64 104, ptr %7) #10
  ret void

24:                                               ; preds = %4
  %25 = landingpad { ptr, i32 }
          cleanup
  %26 = extractvalue { ptr, i32 } %25, 0
  store ptr %26, ptr %11, align 8
  %27 = extractvalue { ptr, i32 } %25, 1
  store i32 %27, ptr %12, align 4
  call void @_ZN5boost4urls6detail15any_params_iterD2Ev(ptr noundef nonnull align 8 dereferenceable(43) %10) #10
  call void @llvm.lifetime.end.p0(i64 48, ptr %10) #10
  call void @llvm.lifetime.end.p0(i64 112, ptr %8) #10
  call void @llvm.lifetime.end.p0(i64 104, ptr %7) #10
  br label %28

28:                                               ; preds = %24
  %29 = load ptr, ptr %11, align 8
  %30 = load i32, ptr %12, align 4
  %31 = insertvalue { ptr, i32 } poison, ptr %29, 0
  %32 = insertvalue { ptr, i32 } %31, i32 %30, 1
  resume { ptr, i32 } %32
}