; Function Attrs: mustprogress uwtable
define void @_ZN5boost4urls10params_ref7replaceENS0_11params_base8iteratorERKNS0_10param_viewE(ptr dead_on_unwind noalias nocapture writable writeonly sret(%"class.boost::urls::params_base::iterator") align 8 %0, ptr nocapture noundef nonnull readonly align 8 dereferenceable(64) %1, ptr noundef byval(%"class.boost::urls::params_base::iterator") align 8 %2, ptr noundef nonnull align 8 dereferenceable(33) %3) local_unnamed_addr #3 align 2 personality ptr @__gxx_personality_v0 {
.preheader.i.i.i:
  %4 = alloca %"class.boost::urls::params_base::iterator", align 8
  %5 = alloca %"struct.boost::urls::detail::params_iter_impl", align 8
  %6 = alloca %"class.boost::urls::params_base::iterator", align 8
  %7 = alloca %"struct.boost::urls::detail::param_iter", align 8
  call void @llvm.lifetime.start.p0(i64 104, ptr nonnull %5) #13
  %8 = getelementptr inbounds nuw i8, ptr %1, i64 56
  %9 = load ptr, ptr %8, align 8, !tbaa !11
  call void @llvm.lifetime.start.p0(i64 112, ptr nonnull %6) #13
  call void @llvm.lifetime.start.p0(i64 112, ptr nonnull %4)
  call void @llvm.memcpy.p0.p0.i64(ptr noundef nonnull align 8 dereferenceable(112) %4, ptr noundef nonnull align 8 dereferenceable(112) %2, i64 112, i1 false)
  call void @_ZN5boost4urls6detail16params_iter_impl9incrementEv(ptr noundef nonnull align 8 dereferenceable(105) %4) #13, !noalias !73
  call void @llvm.memcpy.p0.p0.i64(ptr noundef nonnull align 8 dereferenceable(112) %6, ptr noundef nonnull align 8 dereferenceable(112) %4, i64 112, i1 false)
  call void @llvm.lifetime.end.p0(i64 112, ptr nonnull %4)
  call void @llvm.lifetime.start.p0(i64 48, ptr nonnull %7) #13
  call void @_ZN5boost4urls6detail10param_iterC1ERKNS0_10param_viewE(ptr noundef nonnull align 8 dereferenceable(43) %7, ptr noundef nonnull align 8 dereferenceable(33) %3) #13
  invoke void @_ZN5boost4urls8url_base11edit_paramsERKNS0_6detail16params_iter_implES5_ONS2_15any_params_iterE(ptr dead_on_unwind nonnull writable sret(%"struct.boost::urls::detail::params_iter_impl") align 8 %5, ptr noundef nonnull align 8 dereferenceable(216) %9, ptr noundef nonnull align 8 dereferenceable(104) %2, ptr noundef nonnull align 8 dereferenceable(104) %6, ptr noundef nonnull align 8 dereferenceable(41) %7)
          to label %10 unwind label %15

10:                                               ; preds = %.preheader.i.i.i
  %11 = getelementptr inbounds nuw i8, ptr %1, i64 48
  %.sroa.0.0.copyload = load i24, ptr %11, align 8
  call void @llvm.memcpy.p0.p0.i64(ptr noundef nonnull align 8 dereferenceable(105) %0, ptr noundef nonnull align 8 dereferenceable(104) %5, i64 104, i1 false)
  %12 = getelementptr inbounds nuw i8, ptr %0, i64 104
  %13 = trunc i24 %.sroa.0.0.copyload to i8
  %14 = and i8 %13, 1
  store i8 %14, ptr %12, align 8, !tbaa !30
  call void @_ZN5boost4urls6detail15any_params_iterD2Ev(ptr noundef nonnull align 8 dereferenceable(43) %7) #13
  call void @llvm.lifetime.end.p0(i64 48, ptr nonnull %7) #13
  call void @llvm.lifetime.end.p0(i64 112, ptr nonnull %6) #13
  call void @llvm.lifetime.end.p0(i64 104, ptr nonnull %5) #13
  ret void

15:                                               ; preds = %.preheader.i.i.i
  %16 = landingpad { ptr, i32 }
          cleanup
  call void @_ZN5boost4urls6detail15any_params_iterD2Ev(ptr noundef nonnull align 8 dereferenceable(43) %7) #13
  call void @llvm.lifetime.end.p0(i64 48, ptr nonnull %7) #13
  call void @llvm.lifetime.end.p0(i64 112, ptr nonnull %6) #13
  call void @llvm.lifetime.end.p0(i64 104, ptr nonnull %5) #13
  resume { ptr, i32 } %16
}